target datalayout = "e-m:e-p270:32:32-p271:32:32-p272:64:64-i64:64-i128:128-f80:128-n8:16:32:64-S128"
target triple = "x86_64-unknown-linux-gnu"

%struct.MSGUID = type { i32, i16, i16, [8 x i8] }
%struct.BDRVVHDXState = type <{ %struct.CoMutex, i32, [4 x i8], [2 x ptr], %struct.VHDXRegionTableHeader, %struct.VHDXRegionTableEntry, %struct.VHDXRegionTableEntry, %struct.VHDXMetadataTableHeader, %struct.VHDXMetadataEntries, %struct.VHDXFileParameters, [2 x i8], i32, i32, i32, i32, [4 x i8], i64, i32, i32, i64, i32, i32, i32, [4 x i8], ptr, i64, i8, %struct.MSGUID, [7 x i8], %struct.VHDXLogEntries, %struct.VHDXParentLocatorHeader, [4 x i8], ptr, ptr, i8, [7 x i8], %struct.anon.1 }>
%struct.CoMutex = type { i32, ptr, %struct.anon.0, %struct.anon.0, i32, i32, ptr }
%struct.anon.0 = type { ptr }
%struct.VHDXRegionTableHeader = type { i32, i32, i32, i32 }
%struct.VHDXRegionTableEntry = type { %struct.MSGUID, i64, i32, i32 }
%struct.VHDXMetadataTableHeader = type { i64, i16, i16, [5 x i32] }
%struct.VHDXMetadataEntries = type <{ %struct.VHDXMetadataTableEntry, %struct.VHDXMetadataTableEntry, %struct.VHDXMetadataTableEntry, %struct.VHDXMetadataTableEntry, %struct.VHDXMetadataTableEntry, %struct.VHDXMetadataTableEntry, i16 }>
%struct.VHDXMetadataTableEntry = type { %struct.MSGUID, i32, i32, i32, i32 }
%struct.VHDXFileParameters = type { i32, i32 }
%struct.VHDXLogEntries = type { i64, i64, i32, i32, ptr, ptr, i64, i32 }
%struct.VHDXParentLocatorHeader = type { %struct.MSGUID, i16, i16 }
%struct.anon.1 = type { ptr }

; Function Attrs: nounwind sspstrong uwtable
define dso_local i32 @vhdx_user_visible_write(ptr noundef %bs, ptr noundef %s) #0 {
entry:
  %bs.addr = alloca ptr, align 8
  %s.addr = alloca ptr, align 8
  %ret = alloca i32, align 4
  store ptr %bs, ptr %bs.addr, align 8
  store ptr %s, ptr %s.addr, align 8
  store i32 0, ptr %ret, align 4
  %0 = load ptr, ptr %s.addr, align 8
  %first_visible_write = getelementptr inbounds %struct.BDRVVHDXState, ptr %0, i32 0, i32 26
  %1 = load i8, ptr %first_visible_write, align 8
  %tobool = trunc i8 %1 to i1
  br i1 %tobool, label %if.then, label %if.end

if.then:                                          ; preds = %entry
  %2 = load ptr, ptr %s.addr, align 8
  %first_visible_write1 = getelementptr inbounds %struct.BDRVVHDXState, ptr %2, i32 0, i32 26
  store i8 0, ptr %first_visible_write1, align 8
  %3 = load ptr, ptr %bs.addr, align 8
  %4 = load ptr, ptr %s.addr, align 8
  %call = call i32 @vhdx_update_headers(ptr noundef %3, ptr noundef %4, i1 noundef zeroext true, ptr noundef null)
  store i32 %call, ptr %ret, align 4
  br label %if.end

if.end:                                           ; preds = %if.then, %entry
  %5 = load i32, ptr %ret, align 4
  ret i32 %5
}