; Function Attrs: nounwind sspstrong uwtable
define dso_local i32 @vhdx_user_visible_write(ptr noundef readonly captures(none) %bs, ptr noundef captures(none) %s) local_unnamed_addr #0 {
entry:
  %first_visible_write = getelementptr inbounds nuw i8, ptr %s, i64 464
  %0 = load i8, ptr %first_visible_write, align 8
  %tobool = trunc i8 %0 to i1
  br i1 %tobool, label %if.then, label %if.end

if.then:                                          ; preds = %entry
  store i8 0, ptr %first_visible_write, align 8
  %call = tail call i32 @vhdx_update_headers(ptr noundef %bs, ptr noundef nonnull %s, i1 noundef zeroext true, ptr noundef null)
  br label %if.end

if.end:                                           ; preds = %if.then, %entry
  %ret.0 = phi i32 [ %call, %if.then ], [ 0, %entry ]
  ret i32 %ret.0
}